target datalayout = "e-m:e-p270:32:32-p271:32:32-p272:64:64-i64:64-i128:128-f80:128-n8:16:32:64-S128"
target triple = "x86_64-pc-linux-gnu"

%struct.lean_object = type { i32, i32 }
%struct.lean_ctor_object = type { %struct.lean_object, [0 x ptr] }

; Function Attrs: inlinehint nounwind uwtable
define internal zeroext i1 @lean_is_st(ptr noundef %0) #0 {
  %2 = alloca ptr, align 8
  store ptr %0, ptr %2, align 8, !tbaa !8
  %3 = load ptr, ptr %2, align 8, !tbaa !8
  %4 = getelementptr inbounds nuw %struct.lean_object, ptr %3, i32 0, i32 0
  %5 = load i32, ptr %4, align 4, !tbaa !17
  %6 = icmp sgt i32 %5, 0
  ret i1 %6
}

; Function Attrs: inlinehint nounwind uwtable
define internal ptr @lean_to_ctor(ptr noundef %0) #0 {
  %2 = alloca ptr, align 8
  store ptr %0, ptr %2, align 8, !tbaa !8
  %3 = load ptr, ptr %2, align 8, !tbaa !8
  ret ptr %3
}

; Function Attrs: alwaysinline nounwind uwtable
define internal void @lean_dec_ref(ptr noundef %0) #1 {
  %2 = alloca ptr, align 8
  store ptr %0, ptr %2, align 8, !tbaa !8
  %3 = load ptr, ptr %2, align 8, !tbaa !8
  %4 = getelementptr inbounds nuw %struct.lean_object, ptr %3, i32 0, i32 0
  %5 = load i32, ptr %4, align 4, !tbaa !17
  %6 = icmp sgt i32 %5, 1
  %7 = zext i1 %6 to i32
  %8 = sext i32 %7 to i64
  %9 = call i64 @llvm.expect.i64(i64 %8, i64 1)
  %10 = icmp ne i64 %9, 0
  br i1 %10, label %11, label %16

11:                                               ; preds = %1
  %12 = load ptr, ptr %2, align 8, !tbaa !8
  %13 = getelementptr inbounds nuw %struct.lean_object, ptr %12, i32 0, i32 0
  %14 = load i32, ptr %13, align 4, !tbaa !17
  %15 = add i32 %14, -1
  store i32 %15, ptr %13, align 4, !tbaa !17
  br label %24

16:                                               ; preds = %1
  %17 = load ptr, ptr %2, align 8, !tbaa !8
  %18 = getelementptr inbounds nuw %struct.lean_object, ptr %17, i32 0, i32 0
  %19 = load i32, ptr %18, align 4, !tbaa !17
  %20 = icmp ne i32 %19, 0
  br i1 %20, label %21, label %23

21:                                               ; preds = %16
  %22 = load ptr, ptr %2, align 8, !tbaa !8
  call void @lean_dec_ref_cold(ptr noundef %22)
  br label %23

23:                                               ; preds = %21, %16
  br label %24

24:                                               ; preds = %23, %11
  ret void
}

; Function Attrs: inlinehint nounwind uwtable
define internal void @lean_inc_ref(ptr noundef %0) #0 {
  %2 = alloca ptr, align 8
  store ptr %0, ptr %2, align 8, !tbaa !8
  %3 = load ptr, ptr %2, align 8, !tbaa !8
  %4 = call zeroext i1 @lean_is_st(ptr noundef %3)
  %5 = zext i1 %4 to i64
  %6 = call i64 @llvm.expect.i64(i64 %5, i64 1)
  %7 = icmp ne i64 %6, 0
  br i1 %7, label %8, label %13

8:                                                ; preds = %1
  %9 = load ptr, ptr %2, align 8, !tbaa !8
  %10 = getelementptr inbounds nuw %struct.lean_object, ptr %9, i32 0, i32 0
  %11 = load i32, ptr %10, align 4, !tbaa !17
  %12 = add i32 %11, 1
  store i32 %12, ptr %10, align 4, !tbaa !17
  br label %21

13:                                               ; preds = %1
  %14 = load ptr, ptr %2, align 8, !tbaa !8
  %15 = getelementptr inbounds nuw %struct.lean_object, ptr %14, i32 0, i32 0
  %16 = load i32, ptr %15, align 4, !tbaa !17
  %17 = icmp ne i32 %16, 0
  br i1 %17, label %18, label %20

18:                                               ; preds = %13
  %19 = load ptr, ptr %2, align 8, !tbaa !8
  call void @lean_inc_ref_cold(ptr noundef %19)
  br label %20

20:                                               ; preds = %18, %13
  br label %21

21:                                               ; preds = %20, %8
  ret void
}

; Function Attrs: inlinehint nounwind uwtable
define internal ptr @lean_ctor_obj_cptr(ptr noundef %0) #0 {
  %2 = alloca ptr, align 8
  store ptr %0, ptr %2, align 8, !tbaa !8
  %3 = load ptr, ptr %2, align 8, !tbaa !8
  %4 = call ptr @lean_to_ctor(ptr noundef %3)
  %5 = getelementptr inbounds nuw %struct.lean_ctor_object, ptr %4, i32 0, i32 1
  %6 = getelementptr inbounds [0 x ptr], ptr %5, i64 0, i64 0
  ret ptr %6
}

; Function Attrs: inlinehint nounwind uwtable
define internal zeroext i8 @lean_ptr_tag(ptr noundef %0) #0 {
  %2 = alloca ptr, align 8
  store ptr %0, ptr %2, align 8, !tbaa !8
  %3 = load ptr, ptr %2, align 8, !tbaa !8
  %4 = getelementptr inbounds nuw %struct.lean_object, ptr %3, i32 0, i32 1
  %5 = load i32, ptr %4, align 4
  %6 = lshr i32 %5, 24
  %7 = trunc i32 %6 to i8
  ret i8 %7
}

; Function Attrs: inlinehint nounwind uwtable
define internal i64 @lean_unbox(ptr noundef %0) #0 {
  %2 = alloca ptr, align 8
  store ptr %0, ptr %2, align 8, !tbaa !8
  %3 = load ptr, ptr %2, align 8, !tbaa !8
  %4 = ptrtoint ptr %3 to i64
  %5 = lshr i64 %4, 1
  ret i64 %5
}

; Function Attrs: alwaysinline nounwind uwtable
define internal zeroext i1 @lean_is_scalar(ptr noundef %0) #1 {
  %2 = alloca ptr, align 8
  store ptr %0, ptr %2, align 8, !tbaa !8
  %3 = load ptr, ptr %2, align 8, !tbaa !8
  %4 = ptrtoint ptr %3 to i64
  %5 = and i64 %4, 1
  %6 = icmp eq i64 %5, 1
  ret i1 %6
}

; Function Attrs: alwaysinline nounwind uwtable
define internal void @lean_dec(ptr noundef %0) #1 {
  %2 = alloca ptr, align 8
  store ptr %0, ptr %2, align 8, !tbaa !8
  %3 = load ptr, ptr %2, align 8, !tbaa !8
  %4 = call zeroext i1 @lean_is_scalar(ptr noundef %3)
  br i1 %4, label %7, label %5

5:                                                ; preds = %1
  %6 = load ptr, ptr %2, align 8, !tbaa !8
  call void @lean_dec_ref(ptr noundef %6)
  br label %7

7:                                                ; preds = %5, %1
  ret void
}

; Function Attrs: alwaysinline nounwind uwtable
define internal void @lean_inc(ptr noundef %0) #1 {
  %2 = alloca ptr, align 8
  store ptr %0, ptr %2, align 8, !tbaa !8
  %3 = load ptr, ptr %2, align 8, !tbaa !8
  %4 = call zeroext i1 @lean_is_scalar(ptr noundef %3)
  br i1 %4, label %7, label %5

5:                                                ; preds = %1
  %6 = load ptr, ptr %2, align 8, !tbaa !8
  call void @lean_inc_ref(ptr noundef %6)
  br label %7

7:                                                ; preds = %5, %1
  ret void
}

; Function Attrs: inlinehint nounwind uwtable
define internal ptr @lean_ctor_get(ptr noundef %0, i32 noundef %1) #0 {
  %3 = alloca ptr, align 8
  %4 = alloca i32, align 4
  store ptr %0, ptr %3, align 8, !tbaa !8
  store i32 %1, ptr %4, align 4, !tbaa !13
  %5 = load ptr, ptr %3, align 8, !tbaa !8
  %6 = call ptr @lean_ctor_obj_cptr(ptr noundef %5)
  %7 = load i32, ptr %4, align 4, !tbaa !13
  %8 = zext i32 %7 to i64
  %9 = getelementptr inbounds nuw ptr, ptr %6, i64 %8
  %10 = load ptr, ptr %9, align 8, !tbaa !8
  ret ptr %10
}

; Function Attrs: inlinehint nounwind uwtable
define internal i32 @lean_obj_tag(ptr noundef %0) #0 {
  %2 = alloca i32, align 4
  %3 = alloca ptr, align 8
  store ptr %0, ptr %3, align 8, !tbaa !8
  %4 = load ptr, ptr %3, align 8, !tbaa !8
  %5 = call zeroext i1 @lean_is_scalar(ptr noundef %4)
  br i1 %5, label %6, label %10

6:                                                ; preds = %1
  %7 = load ptr, ptr %3, align 8, !tbaa !8
  %8 = call i64 @lean_unbox(ptr noundef %7)
  %9 = trunc i64 %8 to i32
  store i32 %9, ptr %2, align 4
  br label %14

10:                                               ; preds = %1
  %11 = load ptr, ptr %3, align 8, !tbaa !8
  %12 = call zeroext i8 @lean_ptr_tag(ptr noundef %11)
  %13 = zext i8 %12 to i32
  store i32 %13, ptr %2, align 4
  br label %14

14:                                               ; preds = %10, %6
  %15 = load i32, ptr %2, align 4
  ret i32 %15
}

; Function Attrs: nounwind uwtable
define zeroext i8 @l_Array_mapMUnsafe_map___at_Lean_Widget_diffInteractiveGoals___spec__3___lambda__1(i8 noundef zeroext %0, ptr noundef %1, ptr noundef %2, ptr noundef %3) #2 {
  %5 = alloca i8, align 1
  %6 = alloca i8, align 1
  %7 = alloca ptr, align 8
  %8 = alloca ptr, align 8
  %9 = alloca ptr, align 8
  %10 = alloca ptr, align 8
  %11 = alloca i8, align 1
  %12 = alloca i32, align 4
  %13 = alloca ptr, align 8
  %14 = alloca ptr, align 8
  %15 = alloca i8, align 1
  %16 = alloca i8, align 1
  %17 = alloca ptr, align 8
  %18 = alloca i8, align 1
  %19 = alloca ptr, align 8
  %20 = alloca ptr, align 8
  %21 = alloca i8, align 1
  %22 = alloca i8, align 1
  store i8 %0, ptr %6, align 1, !tbaa !12
  store ptr %1, ptr %7, align 8, !tbaa !8
  store ptr %2, ptr %8, align 8, !tbaa !8
  store ptr %3, ptr %9, align 8, !tbaa !8
  br label %23

23:                                               ; preds = %4
  %24 = load i8, ptr %6, align 1, !tbaa !12
  %25 = zext i8 %24 to i32
  %26 = icmp eq i32 %25, 0
  br i1 %26, label %27, label %55

27:                                               ; preds = %23
  call void @llvm.lifetime.start.p0(i64 8, ptr %10) #7
  %28 = load ptr, ptr %7, align 8, !tbaa !8
  %29 = load ptr, ptr %8, align 8, !tbaa !8
  %30 = call ptr @l_Lean_RBNode_find___at_Lean_Widget_diffInteractiveGoals___spec__2(ptr noundef %28, ptr noundef %29)
  store ptr %30, ptr %10, align 8, !tbaa !8
  %31 = load ptr, ptr %10, align 8, !tbaa !8
  %32 = call i32 @lean_obj_tag(ptr noundef %31)
  %33 = icmp eq i32 %32, 0
  br i1 %33, label %34, label %36

34:                                               ; preds = %27
  call void @llvm.lifetime.start.p0(i64 1, ptr %11) #7
  store i8 0, ptr %11, align 1, !tbaa !12
  %35 = load i8, ptr %11, align 1, !tbaa !12
  store i8 %35, ptr %5, align 1
  store i32 1, ptr %12, align 4
  call void @llvm.lifetime.end.p0(i64 1, ptr %11) #7
  br label %54

36:                                               ; preds = %27
  call void @llvm.lifetime.start.p0(i64 8, ptr %13) #7
  call void @llvm.lifetime.start.p0(i64 8, ptr %14) #7
  %37 = load ptr, ptr %10, align 8, !tbaa !8
  %38 = call ptr @lean_ctor_get(ptr noundef %37, i32 noundef 0)
  store ptr %38, ptr %13, align 8, !tbaa !8
  %39 = load ptr, ptr %13, align 8, !tbaa !8
  call void @lean_inc(ptr noundef %39)
  %40 = load ptr, ptr %10, align 8, !tbaa !8
  call void @lean_dec(ptr noundef %40)
  %41 = load ptr, ptr %13, align 8, !tbaa !8
  %42 = load ptr, ptr %9, align 8, !tbaa !8
  %43 = call ptr @l_Lean_RBNode_findCore___at___private_Lean_MetavarContext_0__Lean_MetavarContext_MkBinding_elimApp___spec__4(ptr noundef %41, ptr noundef %42)
  store ptr %43, ptr %14, align 8, !tbaa !8
  %44 = load ptr, ptr %13, align 8, !tbaa !8
  call void @lean_dec(ptr noundef %44)
  %45 = load ptr, ptr %14, align 8, !tbaa !8
  %46 = call i32 @lean_obj_tag(ptr noundef %45)
  %47 = icmp eq i32 %46, 0
  br i1 %47, label %48, label %50

48:                                               ; preds = %36
  call void @llvm.lifetime.start.p0(i64 1, ptr %15) #7
  store i8 0, ptr %15, align 1, !tbaa !12
  %49 = load i8, ptr %15, align 1, !tbaa !12
  store i8 %49, ptr %5, align 1
  store i32 1, ptr %12, align 4
  call void @llvm.lifetime.end.p0(i64 1, ptr %15) #7
  br label %53

50:                                               ; preds = %36
  call void @llvm.lifetime.start.p0(i64 1, ptr %16) #7
  %51 = load ptr, ptr %14, align 8, !tbaa !8
  call void @lean_dec(ptr noundef %51)
  store i8 1, ptr %16, align 1, !tbaa !12
  %52 = load i8, ptr %16, align 1, !tbaa !12
  store i8 %52, ptr %5, align 1
  store i32 1, ptr %12, align 4
  call void @llvm.lifetime.end.p0(i64 1, ptr %16) #7
  br label %53

53:                                               ; preds = %50, %48
  call void @llvm.lifetime.end.p0(i64 8, ptr %14) #7
  call void @llvm.lifetime.end.p0(i64 8, ptr %13) #7
  br label %54

54:                                               ; preds = %53, %34
  call void @llvm.lifetime.end.p0(i64 8, ptr %10) #7
  br label %83

55:                                               ; preds = %23
  call void @llvm.lifetime.start.p0(i64 8, ptr %17) #7
  %56 = load ptr, ptr %7, align 8, !tbaa !8
  %57 = load ptr, ptr %9, align 8, !tbaa !8
  %58 = call ptr @l_Lean_RBNode_find___at_Lean_Widget_diffInteractiveGoals___spec__2(ptr noundef %56, ptr noundef %57)
  store ptr %58, ptr %17, align 8, !tbaa !8
  %59 = load ptr, ptr %17, align 8, !tbaa !8
  %60 = call i32 @lean_obj_tag(ptr noundef %59)
  %61 = icmp eq i32 %60, 0
  br i1 %61, label %62, label %64

62:                                               ; preds = %55
  call void @llvm.lifetime.start.p0(i64 1, ptr %18) #7
  store i8 0, ptr %18, align 1, !tbaa !12
  %63 = load i8, ptr %18, align 1, !tbaa !12
  store i8 %63, ptr %5, align 1
  store i32 1, ptr %12, align 4
  call void @llvm.lifetime.end.p0(i64 1, ptr %18) #7
  br label %82

64:                                               ; preds = %55
  call void @llvm.lifetime.start.p0(i64 8, ptr %19) #7
  call void @llvm.lifetime.start.p0(i64 8, ptr %20) #7
  %65 = load ptr, ptr %17, align 8, !tbaa !8
  %66 = call ptr @lean_ctor_get(ptr noundef %65, i32 noundef 0)
  store ptr %66, ptr %19, align 8, !tbaa !8
  %67 = load ptr, ptr %19, align 8, !tbaa !8
  call void @lean_inc(ptr noundef %67)
  %68 = load ptr, ptr %17, align 8, !tbaa !8
  call void @lean_dec(ptr noundef %68)
  %69 = load ptr, ptr %19, align 8, !tbaa !8
  %70 = load ptr, ptr %8, align 8, !tbaa !8
  %71 = call ptr @l_Lean_RBNode_findCore___at___private_Lean_MetavarContext_0__Lean_MetavarContext_MkBinding_elimApp___spec__4(ptr noundef %69, ptr noundef %70)
  store ptr %71, ptr %20, align 8, !tbaa !8
  %72 = load ptr, ptr %19, align 8, !tbaa !8
  call void @lean_dec(ptr noundef %72)
  %73 = load ptr, ptr %20, align 8, !tbaa !8
  %74 = call i32 @lean_obj_tag(ptr noundef %73)
  %75 = icmp eq i32 %74, 0
  br i1 %75, label %76, label %78

76:                                               ; preds = %64
  call void @llvm.lifetime.start.p0(i64 1, ptr %21) #7
  store i8 0, ptr %21, align 1, !tbaa !12
  %77 = load i8, ptr %21, align 1, !tbaa !12
  store i8 %77, ptr %5, align 1
  store i32 1, ptr %12, align 4
  call void @llvm.lifetime.end.p0(i64 1, ptr %21) #7
  br label %81

78:                                               ; preds = %64
  call void @llvm.lifetime.start.p0(i64 1, ptr %22) #7
  %79 = load ptr, ptr %20, align 8, !tbaa !8
  call void @lean_dec(ptr noundef %79)
  store i8 1, ptr %22, align 1, !tbaa !12
  %80 = load i8, ptr %22, align 1, !tbaa !12
  store i8 %80, ptr %5, align 1
  store i32 1, ptr %12, align 4
  call void @llvm.lifetime.end.p0(i64 1, ptr %22) #7
  br label %81

81:                                               ; preds = %78, %76
  call void @llvm.lifetime.end.p0(i64 8, ptr %20) #7
  call void @llvm.lifetime.end.p0(i64 8, ptr %19) #7
  br label %82

82:                                               ; preds = %81, %62
  call void @llvm.lifetime.end.p0(i64 8, ptr %17) #7
  br label %83

83:                                               ; preds = %82, %54
  %84 = load i8, ptr %5, align 1
  ret i8 %84
}