; Function Attrs: nounwind uwtable
define zeroext range(i8 0, 2) i8 @l_Array_mapMUnsafe_map___at_Lean_Widget_diffInteractiveGoals___spec__3___lambda__1(i8 noundef zeroext %0, ptr noundef %1, ptr noundef %2, ptr noundef %3) local_unnamed_addr #0 {
  %5 = icmp eq i8 %0, 0
  br i1 %5, label %6, label %55

6:                                                ; preds = %4
  %7 = tail call ptr @l_Lean_RBNode_find___at_Lean_Widget_diffInteractiveGoals___spec__2(ptr noundef %1, ptr noundef %2)
  %8 = ptrtoint ptr %7 to i64
  %9 = and i64 %8, 1
  %.not.i45 = icmp eq i64 %9, 0
  br i1 %.not.i45, label %13, label %10

10:                                               ; preds = %6
  %11 = lshr i64 %8, 1
  %12 = trunc i64 %11 to i32
  br label %lean_obj_tag.exit

13:                                               ; preds = %6
  %14 = getelementptr i8, ptr %7, i64 4
  %.val.i = load i32, ptr %14, align 4
  %15 = lshr i32 %.val.i, 24
  br label %lean_obj_tag.exit

lean_obj_tag.exit:                                ; preds = %10, %13
  %.0.i = phi i32 [ %12, %10 ], [ %15, %13 ]
  %16 = icmp eq i32 %.0.i, 0
  br i1 %16, label %lean_dec.exit31, label %17

17:                                               ; preds = %lean_obj_tag.exit
  %18 = getelementptr inbounds nuw i8, ptr %7, i64 8
  %19 = load ptr, ptr %18, align 8, !tbaa !4
  %20 = ptrtoint ptr %19 to i64
  %21 = and i64 %20, 1
  %.not68 = icmp eq i64 %21, 0
  br i1 %.not68, label %22, label %lean_inc.exit34

22:                                               ; preds = %17
  %.val.i46 = load i32, ptr %19, align 4, !tbaa !8
  %23 = icmp sgt i32 %.val.i46, 0
  br i1 %23, label %24, label %26, !prof !11

24:                                               ; preds = %22
  %25 = add nuw i32 %.val.i46, 1
  store i32 %25, ptr %19, align 4, !tbaa !8
  br label %lean_inc.exit34

26:                                               ; preds = %22
  %.not.i47 = icmp eq i32 %.val.i46, 0
  br i1 %.not.i47, label %lean_inc.exit34, label %27

27:                                               ; preds = %26
  tail call void @lean_inc_ref_cold(ptr noundef nonnull %19) #7
  br label %lean_inc.exit34

lean_inc.exit34:                                  ; preds = %27, %26, %24, %17
  br i1 %.not.i45, label %28, label %lean_dec.exit33

28:                                               ; preds = %lean_inc.exit34
  %29 = load i32, ptr %7, align 4, !tbaa !8
  %30 = icmp sgt i32 %29, 1
  br i1 %30, label %31, label %33, !prof !11

31:                                               ; preds = %28
  %32 = add nsw i32 %29, -1
  store i32 %32, ptr %7, align 4, !tbaa !8
  br label %lean_dec.exit33

33:                                               ; preds = %28
  %.not.i = icmp eq i32 %29, 0
  br i1 %.not.i, label %lean_dec.exit33, label %34

34:                                               ; preds = %33
  tail call void @lean_dec_ref_cold(ptr noundef nonnull %7) #7
  br label %lean_dec.exit33

lean_dec.exit33:                                  ; preds = %34, %33, %31, %lean_inc.exit34
  %35 = tail call ptr @l_Lean_RBNode_findCore___at___private_Lean_MetavarContext_0__Lean_MetavarContext_MkBinding_elimApp___spec__4(ptr noundef %19, ptr noundef %3) #7
  br i1 %.not68, label %36, label %lean_dec.exit32

36:                                               ; preds = %lean_dec.exit33
  %37 = load i32, ptr %19, align 4, !tbaa !8
  %38 = icmp sgt i32 %37, 1
  br i1 %38, label %39, label %41, !prof !11

39:                                               ; preds = %36
  %40 = add nsw i32 %37, -1
  store i32 %40, ptr %19, align 4, !tbaa !8
  br label %lean_dec.exit32

41:                                               ; preds = %36
  %.not.i35 = icmp eq i32 %37, 0
  br i1 %.not.i35, label %lean_dec.exit32, label %42

42:                                               ; preds = %41
  tail call void @lean_dec_ref_cold(ptr noundef nonnull %19) #7
  br label %lean_dec.exit32

lean_dec.exit32:                                  ; preds = %42, %41, %39, %lean_dec.exit33
  %43 = ptrtoint ptr %35 to i64
  %44 = and i64 %43, 1
  %.not.i48 = icmp eq i64 %44, 0
  br i1 %.not.i48, label %lean_obj_tag.exit51.thread, label %lean_obj_tag.exit51

lean_obj_tag.exit51:                              ; preds = %lean_dec.exit32
  %45 = and i64 %43, 8589934590
  %46 = icmp ne i64 %45, 0
  br label %lean_dec.exit31

lean_obj_tag.exit51.thread:                       ; preds = %lean_dec.exit32
  %47 = getelementptr i8, ptr %35, i64 4
  %.val.i50 = load i32, ptr %47, align 4
  %48 = icmp ult i32 %.val.i50, 16777216
  br i1 %48, label %lean_dec.exit31, label %.thread

.thread:                                          ; preds = %lean_obj_tag.exit51.thread
  %49 = load i32, ptr %35, align 4, !tbaa !8
  %50 = icmp sgt i32 %49, 1
  br i1 %50, label %51, label %53, !prof !11

51:                                               ; preds = %.thread
  %52 = add nsw i32 %49, -1
  store i32 %52, ptr %35, align 4, !tbaa !8
  br label %lean_dec.exit31

53:                                               ; preds = %.thread
  %.not.i37 = icmp eq i32 %49, 0
  br i1 %.not.i37, label %lean_dec.exit31, label %54

54:                                               ; preds = %53
  tail call void @lean_dec_ref_cold(ptr noundef nonnull %35) #7
  br label %lean_dec.exit31

55:                                               ; preds = %4
  %56 = tail call ptr @l_Lean_RBNode_find___at_Lean_Widget_diffInteractiveGoals___spec__2(ptr noundef %1, ptr noundef %3)
  %57 = ptrtoint ptr %56 to i64
  %58 = and i64 %57, 1
  %.not.i52 = icmp eq i64 %58, 0
  br i1 %.not.i52, label %62, label %59

59:                                               ; preds = %55
  %60 = lshr i64 %57, 1
  %61 = trunc i64 %60 to i32
  br label %lean_obj_tag.exit55

62:                                               ; preds = %55
  %63 = getelementptr i8, ptr %56, i64 4
  %.val.i54 = load i32, ptr %63, align 4
  %64 = lshr i32 %.val.i54, 24
  br label %lean_obj_tag.exit55

lean_obj_tag.exit55:                              ; preds = %59, %62
  %.0.i53 = phi i32 [ %61, %59 ], [ %64, %62 ]
  %65 = icmp eq i32 %.0.i53, 0
  br i1 %65, label %lean_dec.exit31, label %66

66:                                               ; preds = %lean_obj_tag.exit55
  %67 = getelementptr inbounds nuw i8, ptr %56, i64 8
  %68 = load ptr, ptr %67, align 8, !tbaa !4
  %69 = ptrtoint ptr %68 to i64
  %70 = and i64 %69, 1
  %.not = icmp eq i64 %70, 0
  br i1 %.not, label %71, label %lean_inc.exit

71:                                               ; preds = %66
  %.val.i56 = load i32, ptr %68, align 4, !tbaa !8
  %72 = icmp sgt i32 %.val.i56, 0
  br i1 %72, label %73, label %75, !prof !11

73:                                               ; preds = %71
  %74 = add nuw i32 %.val.i56, 1
  store i32 %74, ptr %68, align 4, !tbaa !8
  br label %lean_inc.exit

75:                                               ; preds = %71
  %.not.i57 = icmp eq i32 %.val.i56, 0
  br i1 %.not.i57, label %lean_inc.exit, label %76

76:                                               ; preds = %75
  tail call void @lean_inc_ref_cold(ptr noundef nonnull %68) #7
  br label %lean_inc.exit

lean_inc.exit:                                    ; preds = %76, %75, %73, %66
  br i1 %.not.i52, label %77, label %lean_dec.exit30

77:                                               ; preds = %lean_inc.exit
  %78 = load i32, ptr %56, align 4, !tbaa !8
  %79 = icmp sgt i32 %78, 1
  br i1 %79, label %80, label %82, !prof !11

80:                                               ; preds = %77
  %81 = add nsw i32 %78, -1
  store i32 %81, ptr %56, align 4, !tbaa !8
  br label %lean_dec.exit30

82:                                               ; preds = %77
  %.not.i39 = icmp eq i32 %78, 0
  br i1 %.not.i39, label %lean_dec.exit30, label %83

83:                                               ; preds = %82
  tail call void @lean_dec_ref_cold(ptr noundef nonnull %56) #7
  br label %lean_dec.exit30

lean_dec.exit30:                                  ; preds = %83, %82, %80, %lean_inc.exit
  %84 = tail call ptr @l_Lean_RBNode_findCore___at___private_Lean_MetavarContext_0__Lean_MetavarContext_MkBinding_elimApp___spec__4(ptr noundef %68, ptr noundef %2) #7
  br i1 %.not, label %85, label %lean_dec.exit29

85:                                               ; preds = %lean_dec.exit30
  %86 = load i32, ptr %68, align 4, !tbaa !8
  %87 = icmp sgt i32 %86, 1
  br i1 %87, label %88, label %90, !prof !11

88:                                               ; preds = %85
  %89 = add nsw i32 %86, -1
  store i32 %89, ptr %68, align 4, !tbaa !8
  br label %lean_dec.exit29

90:                                               ; preds = %85
  %.not.i41 = icmp eq i32 %86, 0
  br i1 %.not.i41, label %lean_dec.exit29, label %91

91:                                               ; preds = %90
  tail call void @lean_dec_ref_cold(ptr noundef nonnull %68) #7
  br label %lean_dec.exit29

lean_dec.exit29:                                  ; preds = %91, %90, %88, %lean_dec.exit30
  %92 = ptrtoint ptr %84 to i64
  %93 = and i64 %92, 1
  %.not.i59 = icmp eq i64 %93, 0
  br i1 %.not.i59, label %lean_obj_tag.exit62.thread, label %lean_obj_tag.exit62

lean_obj_tag.exit62:                              ; preds = %lean_dec.exit29
  %94 = and i64 %92, 8589934590
  %95 = icmp ne i64 %94, 0
  br label %lean_dec.exit31

lean_obj_tag.exit62.thread:                       ; preds = %lean_dec.exit29
  %96 = getelementptr i8, ptr %84, i64 4
  %.val.i61 = load i32, ptr %96, align 4
  %97 = icmp ult i32 %.val.i61, 16777216
  br i1 %97, label %lean_dec.exit31, label %.thread65

.thread65:                                        ; preds = %lean_obj_tag.exit62.thread
  %98 = load i32, ptr %84, align 4, !tbaa !8
  %99 = icmp sgt i32 %98, 1
  br i1 %99, label %100, label %102, !prof !11

100:                                              ; preds = %.thread65
  %101 = add nsw i32 %98, -1
  store i32 %101, ptr %84, align 4, !tbaa !8
  br label %lean_dec.exit31

102:                                              ; preds = %.thread65
  %.not.i43 = icmp eq i32 %98, 0
  br i1 %.not.i43, label %lean_dec.exit31, label %103

103:                                              ; preds = %102
  tail call void @lean_dec_ref_cold(ptr noundef nonnull %84) #7
  br label %lean_dec.exit31

lean_dec.exit31:                                  ; preds = %lean_obj_tag.exit62, %lean_obj_tag.exit51, %100, %102, %103, %lean_obj_tag.exit62.thread, %51, %53, %54, %lean_obj_tag.exit51.thread, %lean_obj_tag.exit55, %lean_obj_tag.exit
  %.2.shrunk = phi i1 [ false, %lean_obj_tag.exit ], [ false, %lean_obj_tag.exit55 ], [ false, %lean_obj_tag.exit51.thread ], [ true, %54 ], [ true, %53 ], [ true, %51 ], [ false, %lean_obj_tag.exit62.thread ], [ true, %103 ], [ true, %102 ], [ true, %100 ], [ %46, %lean_obj_tag.exit51 ], [ %95, %lean_obj_tag.exit62 ]
  %.2 = zext i1 %.2.shrunk to i8
  ret i8 %.2
}